target datalayout = "e-m:e-p270:32:32-p271:32:32-p272:64:64-i64:64-i128:128-f80:128-n8:16:32:64-S128"
target triple = "x86_64-pc-linux-gnu"

@output = dso_local global ptr null, align 8
@.str.63 = private unnamed_addr constant [9 x i8] c"%lldGB%s\00", align 1
@.str.64 = private unnamed_addr constant [9 x i8] c"%lldMB%s\00", align 1
@.str.65 = private unnamed_addr constant [9 x i8] c"%lldKB%s\00", align 1
@.str.66 = private unnamed_addr constant [7 x i8] c"%lld%s\00", align 1

; Function Attrs: nounwind uwtable
define internal void @recover_size_and_print(i64 noundef %0, ptr noundef %1) #0 {
  %3 = alloca i64, align 8
  %4 = alloca ptr, align 8
  store i64 %0, ptr %3, align 8
  store ptr %1, ptr %4, align 8
  %5 = load i64, ptr %3, align 8
  %6 = icmp sge i64 %5, 1024
  br i1 %6, label %7, label %45

7:                                                ; preds = %2
  %8 = load i64, ptr %3, align 8
  %9 = srem i64 %8, 1024
  %10 = icmp eq i64 %9, 0
  br i1 %10, label %11, label %45

11:                                               ; preds = %7
  %12 = load i64, ptr %3, align 8
  %13 = icmp sge i64 %12, 1048576
  br i1 %13, label %14, label %38

14:                                               ; preds = %11
  %15 = load i64, ptr %3, align 8
  %16 = srem i64 %15, 1048576
  %17 = icmp eq i64 %16, 0
  br i1 %17, label %18, label %38

18:                                               ; preds = %14
  %19 = load i64, ptr %3, align 8
  %20 = icmp sge i64 %19, 1073741824
  br i1 %20, label %21, label %31

21:                                               ; preds = %18
  %22 = load i64, ptr %3, align 8
  %23 = srem i64 %22, 1073741824
  %24 = icmp eq i64 %23, 0
  br i1 %24, label %25, label %31

25:                                               ; preds = %21
  %26 = load ptr, ptr @output, align 8
  %27 = load i64, ptr %3, align 8
  %28 = sdiv i64 %27, 1073741824
  %29 = load ptr, ptr %4, align 8
  %30 = call i32 (ptr, ptr, ...) @fprintf(ptr noundef %26, ptr noundef @.str.63, i64 noundef %28, ptr noundef %29) #12
  br label %37

31:                                               ; preds = %21, %18
  %32 = load ptr, ptr @output, align 8
  %33 = load i64, ptr %3, align 8
  %34 = sdiv i64 %33, 1048576
  %35 = load ptr, ptr %4, align 8
  %36 = call i32 (ptr, ptr, ...) @fprintf(ptr noundef %32, ptr noundef @.str.64, i64 noundef %34, ptr noundef %35) #12
  br label %37

37:                                               ; preds = %31, %25
  br label %44

38:                                               ; preds = %14, %11
  %39 = load ptr, ptr @output, align 8
  %40 = load i64, ptr %3, align 8
  %41 = sdiv i64 %40, 1024
  %42 = load ptr, ptr %4, align 8
  %43 = call i32 (ptr, ptr, ...) @fprintf(ptr noundef %39, ptr noundef @.str.65, i64 noundef %41, ptr noundef %42) #12
  br label %44

44:                                               ; preds = %38, %37
  br label %50

45:                                               ; preds = %7, %2
  %46 = load ptr, ptr @output, align 8
  %47 = load i64, ptr %3, align 8
  %48 = load ptr, ptr %4, align 8
  %49 = call i32 (ptr, ptr, ...) @fprintf(ptr noundef %46, ptr noundef @.str.66, i64 noundef %47, ptr noundef %48) #12
  br label %50

50:                                               ; preds = %45, %44
  ret void
}