; Function Attrs: nofree nounwind uwtable
define internal fastcc void @recover_size_and_print(i64 noundef %0) unnamed_addr #4 {
  %2 = icmp sgt i64 %0, 1023
  %3 = and i64 %0, 1023
  %4 = icmp eq i64 %3, 0
  %or.cond = and i1 %2, %4
  br i1 %or.cond, label %5, label %24

5:                                                ; preds = %1
  %6 = icmp ugt i64 %0, 1048575
  %7 = and i64 %0, 1047552
  %8 = icmp eq i64 %7, 0
  %or.cond15 = and i1 %6, %8
  br i1 %or.cond15, label %9, label %20

9:                                                ; preds = %5
  %10 = icmp ugt i64 %0, 1073741823
  %11 = and i64 %0, 1072693248
  %12 = icmp eq i64 %11, 0
  %or.cond17 = and i1 %10, %12
  %13 = load ptr, ptr @output, align 8
  br i1 %or.cond17, label %14, label %17

14:                                               ; preds = %9
  %15 = lshr exact i64 %0, 30
  %16 = tail call i32 (ptr, ptr, ...) @fprintf(ptr noundef %13, ptr noundef nonnull @.str.63, i64 noundef %15, ptr noundef nonnull @.str.35) #18
  br label %27

17:                                               ; preds = %9
  %18 = lshr exact i64 %0, 20
  %19 = tail call i32 (ptr, ptr, ...) @fprintf(ptr noundef %13, ptr noundef nonnull @.str.64, i64 noundef %18, ptr noundef nonnull @.str.35) #18
  br label %27

20:                                               ; preds = %5
  %21 = load ptr, ptr @output, align 8
  %22 = lshr exact i64 %0, 10
  %23 = tail call i32 (ptr, ptr, ...) @fprintf(ptr noundef %21, ptr noundef nonnull @.str.65, i64 noundef %22, ptr noundef nonnull @.str.35) #18
  br label %27

24:                                               ; preds = %1
  %25 = load ptr, ptr @output, align 8
  %26 = tail call i32 (ptr, ptr, ...) @fprintf(ptr noundef %25, ptr noundef nonnull @.str.66, i64 noundef %0, ptr noundef nonnull @.str.35) #18
  br label %27

27:                                               ; preds = %20, %17, %14, %24
  ret void
}